
Tuto_TIM16_REG_G031_001.elf:     file format elf32-littlearm

Sections:
Idx Name          Size      VMA       LMA       File off  Algn
  0 .isr_vector   000000c0  08000000  08000000  00010000  2**0
                  CONTENTS, ALLOC, LOAD, READONLY, DATA
  1 .text         000003e0  080000c0  080000c0  000100c0  2**2
                  CONTENTS, ALLOC, LOAD, READONLY, CODE
  2 .rodata       00000000  080004a0  080004a8  000104a8  2**0
                  CONTENTS, ALLOC, LOAD, DATA
  3 .ARM.extab    00000000  080004a0  080004a0  000104a8  2**0
                  CONTENTS
  4 .ARM          00000000  080004a0  080004a0  000104a8  2**0
                  CONTENTS
  5 .preinit_array 00000000  080004a0  080004a8  000104a8  2**0
                  CONTENTS, ALLOC, LOAD, DATA
  6 .init_array   00000004  080004a0  080004a0  000104a0  2**2
                  CONTENTS, ALLOC, LOAD, DATA
  7 .fini_array   00000004  080004a4  080004a4  000104a4  2**2
                  CONTENTS, ALLOC, LOAD, DATA
  8 .data         00000000  20000000  20000000  000104a8  2**0
                  CONTENTS, ALLOC, LOAD, DATA
  9 .bss          00000020  20000000  080004a8  00020000  2**2
                  ALLOC
 10 ._user_heap_stack 00000600  20000020  080004a8  00020020  2**0
                  ALLOC
 11 .ARM.attributes 00000028  00000000  00000000  000104a8  2**0
                  CONTENTS, READONLY
 12 .comment      00000043  00000000  00000000  000104d0  2**0
                  CONTENTS, READONLY
 13 .debug_info   00000bab  00000000  00000000  00010513  2**0
                  CONTENTS, READONLY, DEBUGGING, OCTETS
 14 .debug_abbrev 000002d9  00000000  00000000  000110be  2**0
                  CONTENTS, READONLY, DEBUGGING, OCTETS
 15 .debug_aranges 000000a8  00000000  00000000  00011398  2**3
                  CONTENTS, READONLY, DEBUGGING, OCTETS
 16 .debug_rnglists 00000070  00000000  00000000  00011440  2**0
                  CONTENTS, READONLY, DEBUGGING, OCTETS
 17 .debug_macro  0000c394  00000000  00000000  000114b0  2**0
                  CONTENTS, READONLY, DEBUGGING, OCTETS
 18 .debug_line   00000cc9  00000000  00000000  0001d844  2**0
                  CONTENTS, READONLY, DEBUGGING, OCTETS
 19 .debug_str    00044b94  00000000  00000000  0001e50d  2**0
                  CONTENTS, READONLY, DEBUGGING, OCTETS
 20 .debug_frame  00000174  00000000  00000000  000630a4  2**2
                  CONTENTS, READONLY, DEBUGGING, OCTETS
 21 .debug_line_str 00000059  00000000  00000000  00063218  2**0
                  CONTENTS, READONLY, DEBUGGING, OCTETS

Disassembly of section .text:

080000c0 <__do_global_dtors_aux>:
 80000c0:	b510      	push	{r4, lr}
 80000c2:	4c06      	ldr	r4, [pc, #24]	; (80000dc <__do_global_dtors_aux+0x1c>)
 80000c4:	7823      	ldrb	r3, [r4, #0]
 80000c6:	2b00      	cmp	r3, #0
 80000c8:	d107      	bne.n	80000da <__do_global_dtors_aux+0x1a>
 80000ca:	4b05      	ldr	r3, [pc, #20]	; (80000e0 <__do_global_dtors_aux+0x20>)
 80000cc:	2b00      	cmp	r3, #0
 80000ce:	d002      	beq.n	80000d6 <__do_global_dtors_aux+0x16>
 80000d0:	4804      	ldr	r0, [pc, #16]	; (80000e4 <__do_global_dtors_aux+0x24>)
 80000d2:	e000      	b.n	80000d6 <__do_global_dtors_aux+0x16>
 80000d4:	bf00      	nop
 80000d6:	2301      	movs	r3, #1
 80000d8:	7023      	strb	r3, [r4, #0]
 80000da:	bd10      	pop	{r4, pc}
 80000dc:	20000000 	.word	0x20000000
 80000e0:	00000000 	.word	0x00000000
 80000e4:	08000488 	.word	0x08000488

080000e8 <frame_dummy>:
 80000e8:	4b04      	ldr	r3, [pc, #16]	; (80000fc <frame_dummy+0x14>)
 80000ea:	b510      	push	{r4, lr}
 80000ec:	2b00      	cmp	r3, #0
 80000ee:	d003      	beq.n	80000f8 <frame_dummy+0x10>
 80000f0:	4903      	ldr	r1, [pc, #12]	; (8000100 <frame_dummy+0x18>)
 80000f2:	4804      	ldr	r0, [pc, #16]	; (8000104 <frame_dummy+0x1c>)
 80000f4:	e000      	b.n	80000f8 <frame_dummy+0x10>
 80000f6:	bf00      	nop
 80000f8:	bd10      	pop	{r4, pc}
 80000fa:	46c0      	nop			; (mov r8, r8)
 80000fc:	00000000 	.word	0x00000000
 8000100:	20000004 	.word	0x20000004
 8000104:	08000488 	.word	0x08000488

08000108 <main>:
uint8_t my_tim16_irq = 0 ;
uint16_t tim16_arr = 0 ;
void ldg_init ( void ) ;

int main(void)
{
 8000108:	b580      	push	{r7, lr}
 800010a:	af00      	add	r7, sp, #0
	ldg_init () ;
 800010c:	f000 f820 	bl	8000150 <ldg_init>
	config_my_tim16 ( G031_MY_SYS_CLOCK ) ;
 8000110:	23fa      	movs	r3, #250	; 0xfa
 8000112:	019b      	lsls	r3, r3, #6
 8000114:	0018      	movs	r0, r3
 8000116:	f000 f919 	bl	800034c <config_my_tim16>
	start_my_tim16 ( (uint16_t) 10000 ) ;
 800011a:	4b0b      	ldr	r3, [pc, #44]	; (8000148 <main+0x40>)
 800011c:	0018      	movs	r0, r3
 800011e:	f000 f949 	bl	80003b4 <start_my_tim16>
	while ( my_tim16_irq == 0 )
 8000122:	46c0      	nop			; (mov r8, r8)
 8000124:	4b09      	ldr	r3, [pc, #36]	; (800014c <main+0x44>)
 8000126:	781b      	ldrb	r3, [r3, #0]
 8000128:	2b00      	cmp	r3, #0
 800012a:	d0fb      	beq.n	8000124 <main+0x1c>
		;
	off_my_tim16 () ;
 800012c:	f000 f976 	bl	800041c <off_my_tim16>
	config_my_tim16 ( G031_MY_SYS_CLOCK ) ;
 8000130:	23fa      	movs	r3, #250	; 0xfa
 8000132:	019b      	lsls	r3, r3, #6
 8000134:	0018      	movs	r0, r3
 8000136:	f000 f909 	bl	800034c <config_my_tim16>
	start_my_tim16 ( (uint16_t) 1000 ) ;
 800013a:	23fa      	movs	r3, #250	; 0xfa
 800013c:	009b      	lsls	r3, r3, #2
 800013e:	0018      	movs	r0, r3
 8000140:	f000 f938 	bl	80003b4 <start_my_tim16>
	while  ( 1 )
 8000144:	e7fe      	b.n	8000144 <main+0x3c>
 8000146:	46c0      	nop			; (mov r8, r8)
 8000148:	00002710 	.word	0x00002710
 800014c:	2000001c 	.word	0x2000001c

08000150 <ldg_init>:
		;
}

void ldg_init ( void ) // LDG = PC6
{
 8000150:	b580      	push	{r7, lr}
 8000152:	af00      	add	r7, sp, #0
	RCC->IOPENR 	|=  RCC_IOPENR_GPIOCEN ;
 8000154:	4b13      	ldr	r3, [pc, #76]	; (80001a4 <ldg_init+0x54>)
 8000156:	6b5a      	ldr	r2, [r3, #52]	; 0x34
 8000158:	4b12      	ldr	r3, [pc, #72]	; (80001a4 <ldg_init+0x54>)
 800015a:	2104      	movs	r1, #4
 800015c:	430a      	orrs	r2, r1
 800015e:	635a      	str	r2, [r3, #52]	; 0x34
	GPIOC->MODER 	|= 	GPIO_MODER_MODE6_0 ;
 8000160:	4b11      	ldr	r3, [pc, #68]	; (80001a8 <ldg_init+0x58>)
 8000162:	681a      	ldr	r2, [r3, #0]
 8000164:	4b10      	ldr	r3, [pc, #64]	; (80001a8 <ldg_init+0x58>)
 8000166:	2180      	movs	r1, #128	; 0x80
 8000168:	0149      	lsls	r1, r1, #5
 800016a:	430a      	orrs	r2, r1
 800016c:	601a      	str	r2, [r3, #0]
	GPIOC->MODER 	&= 	~GPIO_MODER_MODE6_1 ;
 800016e:	4b0e      	ldr	r3, [pc, #56]	; (80001a8 <ldg_init+0x58>)
 8000170:	681a      	ldr	r2, [r3, #0]
 8000172:	4b0d      	ldr	r3, [pc, #52]	; (80001a8 <ldg_init+0x58>)
 8000174:	490d      	ldr	r1, [pc, #52]	; (80001ac <ldg_init+0x5c>)
 8000176:	400a      	ands	r2, r1
 8000178:	601a      	str	r2, [r3, #0]
	GPIOC->OTYPER 	&= 	~GPIO_OTYPER_OT6 ;
 800017a:	4b0b      	ldr	r3, [pc, #44]	; (80001a8 <ldg_init+0x58>)
 800017c:	685a      	ldr	r2, [r3, #4]
 800017e:	4b0a      	ldr	r3, [pc, #40]	; (80001a8 <ldg_init+0x58>)
 8000180:	2140      	movs	r1, #64	; 0x40
 8000182:	438a      	bics	r2, r1
 8000184:	605a      	str	r2, [r3, #4]
	GPIOC->OSPEEDR 	&= 	~GPIO_OSPEEDR_OSPEED6 ;
 8000186:	4b08      	ldr	r3, [pc, #32]	; (80001a8 <ldg_init+0x58>)
 8000188:	689a      	ldr	r2, [r3, #8]
 800018a:	4b07      	ldr	r3, [pc, #28]	; (80001a8 <ldg_init+0x58>)
 800018c:	4908      	ldr	r1, [pc, #32]	; (80001b0 <ldg_init+0x60>)
 800018e:	400a      	ands	r2, r1
 8000190:	609a      	str	r2, [r3, #8]
	GPIOC->PUPDR 	&= 	~GPIO_PUPDR_PUPD6 ;
 8000192:	4b05      	ldr	r3, [pc, #20]	; (80001a8 <ldg_init+0x58>)
 8000194:	68da      	ldr	r2, [r3, #12]
 8000196:	4b04      	ldr	r3, [pc, #16]	; (80001a8 <ldg_init+0x58>)
 8000198:	4905      	ldr	r1, [pc, #20]	; (80001b0 <ldg_init+0x60>)
 800019a:	400a      	ands	r2, r1
 800019c:	60da      	str	r2, [r3, #12]
}
 800019e:	46c0      	nop			; (mov r8, r8)
 80001a0:	46bd      	mov	sp, r7
 80001a2:	bd80      	pop	{r7, pc}
 80001a4:	40021000 	.word	0x40021000
 80001a8:	50000800 	.word	0x50000800
 80001ac:	ffffdfff 	.word	0xffffdfff
 80001b0:	ffffcfff 	.word	0xffffcfff

080001b4 <TIM16_IRQHandler>:
	TIM16->SR &= ~TIM_SR_UIF ;		// Clear IRQ flag
	TIM16->SR &= ~TIM_SR_CC1IF ; 	// CC1IF: Capture/Compare 1 interrupt flag
}

void TIM16_IRQHandler ( void )
{
 80001b4:	b580      	push	{r7, lr}
 80001b6:	af00      	add	r7, sp, #0
	TOGGLE_LDG ;
 80001b8:	4b08      	ldr	r3, [pc, #32]	; (80001dc <TIM16_IRQHandler+0x28>)
 80001ba:	695a      	ldr	r2, [r3, #20]
 80001bc:	4b07      	ldr	r3, [pc, #28]	; (80001dc <TIM16_IRQHandler+0x28>)
 80001be:	2140      	movs	r1, #64	; 0x40
 80001c0:	404a      	eors	r2, r1
 80001c2:	615a      	str	r2, [r3, #20]
	my_tim16_irq = 1 ;
 80001c4:	4b06      	ldr	r3, [pc, #24]	; (80001e0 <TIM16_IRQHandler+0x2c>)
 80001c6:	2201      	movs	r2, #1
 80001c8:	701a      	strb	r2, [r3, #0]
	TIM16->SR &= ~TIM_SR_UIF ;		//Clean UIF Flag
 80001ca:	4b06      	ldr	r3, [pc, #24]	; (80001e4 <TIM16_IRQHandler+0x30>)
 80001cc:	691a      	ldr	r2, [r3, #16]
 80001ce:	4b05      	ldr	r3, [pc, #20]	; (80001e4 <TIM16_IRQHandler+0x30>)
 80001d0:	2101      	movs	r1, #1
 80001d2:	438a      	bics	r2, r1
 80001d4:	611a      	str	r2, [r3, #16]
}
 80001d6:	46c0      	nop			; (mov r8, r8)
 80001d8:	46bd      	mov	sp, r7
 80001da:	bd80      	pop	{r7, pc}
 80001dc:	50000800 	.word	0x50000800
 80001e0:	2000001c 	.word	0x2000001c
 80001e4:	40014400 	.word	0x40014400

080001e8 <Reset_Handler>:

  .section .text.Reset_Handler
  .weak Reset_Handler
  .type Reset_Handler, %function
Reset_Handler:
  ldr   r0, =_estack
 80001e8:	480d      	ldr	r0, [pc, #52]	; (8000220 <LoopForever+0x2>)
  mov   sp, r0          /* set stack pointer */
 80001ea:	4685      	mov	sp, r0
/* Call the clock system initialization function.*/
  bl  SystemInit
 80001ec:	e000      	b.n	80001f0 <Reset_Handler+0x8>
 80001ee:	bf00      	nop

/* Copy the data segment initializers from flash to SRAM */
  ldr r0, =_sdata
 80001f0:	480c      	ldr	r0, [pc, #48]	; (8000224 <LoopForever+0x6>)
  ldr r1, =_edata
 80001f2:	490d      	ldr	r1, [pc, #52]	; (8000228 <LoopForever+0xa>)
  ldr r2, =_sidata
 80001f4:	4a0d      	ldr	r2, [pc, #52]	; (800022c <LoopForever+0xe>)
  movs r3, #0
 80001f6:	2300      	movs	r3, #0
  b LoopCopyDataInit
 80001f8:	e002      	b.n	8000200 <LoopCopyDataInit>

080001fa <CopyDataInit>:

CopyDataInit:
  ldr r4, [r2, r3]
 80001fa:	58d4      	ldr	r4, [r2, r3]
  str r4, [r0, r3]
 80001fc:	50c4      	str	r4, [r0, r3]
  adds r3, r3, #4
 80001fe:	3304      	adds	r3, #4

08000200 <LoopCopyDataInit>:

LoopCopyDataInit:
  adds r4, r0, r3
 8000200:	18c4      	adds	r4, r0, r3
  cmp r4, r1
 8000202:	428c      	cmp	r4, r1
  bcc CopyDataInit
 8000204:	d3f9      	bcc.n	80001fa <CopyDataInit>

/* Zero fill the bss segment. */
  ldr r2, =_sbss
 8000206:	4a0a      	ldr	r2, [pc, #40]	; (8000230 <LoopForever+0x12>)
  ldr r4, =_ebss
 8000208:	4c0a      	ldr	r4, [pc, #40]	; (8000234 <LoopForever+0x16>)
  movs r3, #0
 800020a:	2300      	movs	r3, #0
  b LoopFillZerobss
 800020c:	e001      	b.n	8000212 <LoopFillZerobss>

0800020e <FillZerobss>:

FillZerobss:
  str  r3, [r2]
 800020e:	6013      	str	r3, [r2, #0]
  adds r2, r2, #4
 8000210:	3204      	adds	r2, #4

08000212 <LoopFillZerobss>:

LoopFillZerobss:
  cmp r2, r4
 8000212:	42a2      	cmp	r2, r4
  bcc FillZerobss
 8000214:	d3fb      	bcc.n	800020e <FillZerobss>

/* Call static constructors */
  bl __libc_init_array
 8000216:	f000 f913 	bl	8000440 <__libc_init_array>
/* Call the application's entry point.*/
  bl main
 800021a:	f7ff ff75 	bl	8000108 <main>

0800021e <LoopForever>:

LoopForever:
  b LoopForever
 800021e:	e7fe      	b.n	800021e <LoopForever>
  ldr   r0, =_estack
 8000220:	20002000 	.word	0x20002000
  ldr r0, =_sdata
 8000224:	20000000 	.word	0x20000000
  ldr r1, =_edata
 8000228:	20000000 	.word	0x20000000
  ldr r2, =_sidata
 800022c:	080004a8 	.word	0x080004a8
  ldr r2, =_sbss
 8000230:	20000000 	.word	0x20000000
  ldr r4, =_ebss
 8000234:	20000020 	.word	0x20000020

08000238 <ADC_COMP_IRQHandler>:
 * @retval : None
*/
  .section .text.Default_Handler,"ax",%progbits
Default_Handler:
Infinite_Loop:
  b Infinite_Loop
 8000238:	e7fe      	b.n	8000238 <ADC_COMP_IRQHandler>
	...

0800023c <__NVIC_EnableIRQ>:
  \details Enables a device specific interrupt in the NVIC interrupt controller.
  \param [in]      IRQn  Device specific interrupt number.
  \note    IRQn must not be negative.
 */
__STATIC_INLINE void __NVIC_EnableIRQ(IRQn_Type IRQn)
{
 800023c:	b580      	push	{r7, lr}
 800023e:	b082      	sub	sp, #8
 8000240:	af00      	add	r7, sp, #0
 8000242:	0002      	movs	r2, r0
 8000244:	1dfb      	adds	r3, r7, #7
 8000246:	701a      	strb	r2, [r3, #0]
  if ((int32_t)(IRQn) >= 0)
 8000248:	1dfb      	adds	r3, r7, #7
 800024a:	781b      	ldrb	r3, [r3, #0]
 800024c:	2b7f      	cmp	r3, #127	; 0x7f
 800024e:	d809      	bhi.n	8000264 <__NVIC_EnableIRQ+0x28>
  {
    __COMPILER_BARRIER();
    NVIC->ISER[0U] = (uint32_t)(1UL << (((uint32_t)IRQn) & 0x1FUL));
 8000250:	1dfb      	adds	r3, r7, #7
 8000252:	781b      	ldrb	r3, [r3, #0]
 8000254:	001a      	movs	r2, r3
 8000256:	231f      	movs	r3, #31
 8000258:	401a      	ands	r2, r3
 800025a:	4b04      	ldr	r3, [pc, #16]	; (800026c <__NVIC_EnableIRQ+0x30>)
 800025c:	2101      	movs	r1, #1
 800025e:	4091      	lsls	r1, r2
 8000260:	000a      	movs	r2, r1
 8000262:	601a      	str	r2, [r3, #0]
    __COMPILER_BARRIER();
  }
}
 8000264:	46c0      	nop			; (mov r8, r8)
 8000266:	46bd      	mov	sp, r7
 8000268:	b002      	add	sp, #8
 800026a:	bd80      	pop	{r7, pc}
 800026c:	e000e100 	.word	0xe000e100

08000270 <__NVIC_SetPriority>:
  \param [in]      IRQn  Interrupt number.
  \param [in]  priority  Priority to set.
  \note    The priority cannot be set for every processor exception.
 */
__STATIC_INLINE void __NVIC_SetPriority(IRQn_Type IRQn, uint32_t priority)
{
 8000270:	b590      	push	{r4, r7, lr}
 8000272:	b083      	sub	sp, #12
 8000274:	af00      	add	r7, sp, #0
 8000276:	0002      	movs	r2, r0
 8000278:	6039      	str	r1, [r7, #0]
 800027a:	1dfb      	adds	r3, r7, #7
 800027c:	701a      	strb	r2, [r3, #0]
  if ((int32_t)(IRQn) >= 0)
 800027e:	1dfb      	adds	r3, r7, #7
 8000280:	781b      	ldrb	r3, [r3, #0]
 8000282:	2b7f      	cmp	r3, #127	; 0x7f
 8000284:	d828      	bhi.n	80002d8 <__NVIC_SetPriority+0x68>
  {
    NVIC->IP[_IP_IDX(IRQn)]  = ((uint32_t)(NVIC->IP[_IP_IDX(IRQn)]  & ~(0xFFUL << _BIT_SHIFT(IRQn))) |
 8000286:	4a2f      	ldr	r2, [pc, #188]	; (8000344 <__NVIC_SetPriority+0xd4>)
 8000288:	1dfb      	adds	r3, r7, #7
 800028a:	781b      	ldrb	r3, [r3, #0]
 800028c:	b25b      	sxtb	r3, r3
 800028e:	089b      	lsrs	r3, r3, #2
 8000290:	33c0      	adds	r3, #192	; 0xc0
 8000292:	009b      	lsls	r3, r3, #2
 8000294:	589b      	ldr	r3, [r3, r2]
 8000296:	1dfa      	adds	r2, r7, #7
 8000298:	7812      	ldrb	r2, [r2, #0]
 800029a:	0011      	movs	r1, r2
 800029c:	2203      	movs	r2, #3
 800029e:	400a      	ands	r2, r1
 80002a0:	00d2      	lsls	r2, r2, #3
 80002a2:	21ff      	movs	r1, #255	; 0xff
 80002a4:	4091      	lsls	r1, r2
 80002a6:	000a      	movs	r2, r1
 80002a8:	43d2      	mvns	r2, r2
 80002aa:	401a      	ands	r2, r3
 80002ac:	0011      	movs	r1, r2
       (((priority << (8U - __NVIC_PRIO_BITS)) & (uint32_t)0xFFUL) << _BIT_SHIFT(IRQn)));
 80002ae:	683b      	ldr	r3, [r7, #0]
 80002b0:	019b      	lsls	r3, r3, #6
 80002b2:	22ff      	movs	r2, #255	; 0xff
 80002b4:	401a      	ands	r2, r3
 80002b6:	1dfb      	adds	r3, r7, #7
 80002b8:	781b      	ldrb	r3, [r3, #0]
 80002ba:	0018      	movs	r0, r3
 80002bc:	2303      	movs	r3, #3
 80002be:	4003      	ands	r3, r0
 80002c0:	00db      	lsls	r3, r3, #3
 80002c2:	409a      	lsls	r2, r3
    NVIC->IP[_IP_IDX(IRQn)]  = ((uint32_t)(NVIC->IP[_IP_IDX(IRQn)]  & ~(0xFFUL << _BIT_SHIFT(IRQn))) |
 80002c4:	481f      	ldr	r0, [pc, #124]	; (8000344 <__NVIC_SetPriority+0xd4>)
 80002c6:	1dfb      	adds	r3, r7, #7
 80002c8:	781b      	ldrb	r3, [r3, #0]
 80002ca:	b25b      	sxtb	r3, r3
 80002cc:	089b      	lsrs	r3, r3, #2
 80002ce:	430a      	orrs	r2, r1
 80002d0:	33c0      	adds	r3, #192	; 0xc0
 80002d2:	009b      	lsls	r3, r3, #2
 80002d4:	501a      	str	r2, [r3, r0]
  else
  {
    SCB->SHP[_SHP_IDX(IRQn)] = ((uint32_t)(SCB->SHP[_SHP_IDX(IRQn)] & ~(0xFFUL << _BIT_SHIFT(IRQn))) |
       (((priority << (8U - __NVIC_PRIO_BITS)) & (uint32_t)0xFFUL) << _BIT_SHIFT(IRQn)));
  }
}
 80002d6:	e031      	b.n	800033c <__NVIC_SetPriority+0xcc>
    SCB->SHP[_SHP_IDX(IRQn)] = ((uint32_t)(SCB->SHP[_SHP_IDX(IRQn)] & ~(0xFFUL << _BIT_SHIFT(IRQn))) |
 80002d8:	4a1b      	ldr	r2, [pc, #108]	; (8000348 <__NVIC_SetPriority+0xd8>)
 80002da:	1dfb      	adds	r3, r7, #7
 80002dc:	781b      	ldrb	r3, [r3, #0]
 80002de:	0019      	movs	r1, r3
 80002e0:	230f      	movs	r3, #15
 80002e2:	400b      	ands	r3, r1
 80002e4:	3b08      	subs	r3, #8
 80002e6:	089b      	lsrs	r3, r3, #2
 80002e8:	3306      	adds	r3, #6
 80002ea:	009b      	lsls	r3, r3, #2
 80002ec:	18d3      	adds	r3, r2, r3
 80002ee:	3304      	adds	r3, #4
 80002f0:	681b      	ldr	r3, [r3, #0]
 80002f2:	1dfa      	adds	r2, r7, #7
 80002f4:	7812      	ldrb	r2, [r2, #0]
 80002f6:	0011      	movs	r1, r2
 80002f8:	2203      	movs	r2, #3
 80002fa:	400a      	ands	r2, r1
 80002fc:	00d2      	lsls	r2, r2, #3
 80002fe:	21ff      	movs	r1, #255	; 0xff
 8000300:	4091      	lsls	r1, r2
 8000302:	000a      	movs	r2, r1
 8000304:	43d2      	mvns	r2, r2
 8000306:	401a      	ands	r2, r3
 8000308:	0011      	movs	r1, r2
       (((priority << (8U - __NVIC_PRIO_BITS)) & (uint32_t)0xFFUL) << _BIT_SHIFT(IRQn)));
 800030a:	683b      	ldr	r3, [r7, #0]
 800030c:	019b      	lsls	r3, r3, #6
 800030e:	22ff      	movs	r2, #255	; 0xff
 8000310:	401a      	ands	r2, r3
 8000312:	1dfb      	adds	r3, r7, #7
 8000314:	781b      	ldrb	r3, [r3, #0]
 8000316:	0018      	movs	r0, r3
 8000318:	2303      	movs	r3, #3
 800031a:	4003      	ands	r3, r0
 800031c:	00db      	lsls	r3, r3, #3
 800031e:	409a      	lsls	r2, r3
    SCB->SHP[_SHP_IDX(IRQn)] = ((uint32_t)(SCB->SHP[_SHP_IDX(IRQn)] & ~(0xFFUL << _BIT_SHIFT(IRQn))) |
 8000320:	4809      	ldr	r0, [pc, #36]	; (8000348 <__NVIC_SetPriority+0xd8>)
 8000322:	1dfb      	adds	r3, r7, #7
 8000324:	781b      	ldrb	r3, [r3, #0]
 8000326:	001c      	movs	r4, r3
 8000328:	230f      	movs	r3, #15
 800032a:	4023      	ands	r3, r4
 800032c:	3b08      	subs	r3, #8
 800032e:	089b      	lsrs	r3, r3, #2
 8000330:	430a      	orrs	r2, r1
 8000332:	3306      	adds	r3, #6
 8000334:	009b      	lsls	r3, r3, #2
 8000336:	18c3      	adds	r3, r0, r3
 8000338:	3304      	adds	r3, #4
 800033a:	601a      	str	r2, [r3, #0]
}
 800033c:	46c0      	nop			; (mov r8, r8)
 800033e:	46bd      	mov	sp, r7
 8000340:	b003      	add	sp, #12
 8000342:	bd90      	pop	{r4, r7, pc}
 8000344:	e000e100 	.word	0xe000e100
 8000348:	e000ed00 	.word	0xe000ed00

0800034c <config_my_tim16>:

#include "stm32g031xx.h"
#include "my_tims.h"

void config_my_tim16 ( uint16_t my_sys_clock_config )
{
 800034c:	b580      	push	{r7, lr}
 800034e:	b082      	sub	sp, #8
 8000350:	af00      	add	r7, sp, #0
 8000352:	0002      	movs	r2, r0
 8000354:	1dbb      	adds	r3, r7, #6
 8000356:	801a      	strh	r2, [r3, #0]
	RCC->APBENR2		|= RCC_APBENR2_TIM16EN ; 	// Enable TIM16 clock
 8000358:	4b14      	ldr	r3, [pc, #80]	; (80003ac <config_my_tim16+0x60>)
 800035a:	6c1a      	ldr	r2, [r3, #64]	; 0x40
 800035c:	4b13      	ldr	r3, [pc, #76]	; (80003ac <config_my_tim16+0x60>)
 800035e:	2180      	movs	r1, #128	; 0x80
 8000360:	0289      	lsls	r1, r1, #10
 8000362:	430a      	orrs	r2, r1
 8000364:	641a      	str	r2, [r3, #64]	; 0x40
	TIM16->PSC 			= my_sys_clock_config - 1 ; // default: 0,001 s = 1000 Hz = ( 16 000 000 Hz / 16 000 )
 8000366:	1dbb      	adds	r3, r7, #6
 8000368:	881b      	ldrh	r3, [r3, #0]
 800036a:	1e5a      	subs	r2, r3, #1
 800036c:	4b10      	ldr	r3, [pc, #64]	; (80003b0 <config_my_tim16+0x64>)
 800036e:	629a      	str	r2, [r3, #40]	; 0x28
	TIM16->EGR			|= TIM_EGR_UG ; 			// Force EGR.UG update
 8000370:	4b0f      	ldr	r3, [pc, #60]	; (80003b0 <config_my_tim16+0x64>)
 8000372:	695a      	ldr	r2, [r3, #20]
 8000374:	4b0e      	ldr	r3, [pc, #56]	; (80003b0 <config_my_tim16+0x64>)
 8000376:	2101      	movs	r1, #1
 8000378:	430a      	orrs	r2, r1
 800037a:	615a      	str	r2, [r3, #20]
	TIM16->SR 			&= ~TIM_SR_UIF ;			//Clean UIF Flag
 800037c:	4b0c      	ldr	r3, [pc, #48]	; (80003b0 <config_my_tim16+0x64>)
 800037e:	691a      	ldr	r2, [r3, #16]
 8000380:	4b0b      	ldr	r3, [pc, #44]	; (80003b0 <config_my_tim16+0x64>)
 8000382:	2101      	movs	r1, #1
 8000384:	438a      	bics	r2, r1
 8000386:	611a      	str	r2, [r3, #16]
	TIM16->DIER 		|= TIM_DIER_UIE ; 			// Enable interrupt generation
 8000388:	4b09      	ldr	r3, [pc, #36]	; (80003b0 <config_my_tim16+0x64>)
 800038a:	68da      	ldr	r2, [r3, #12]
 800038c:	4b08      	ldr	r3, [pc, #32]	; (80003b0 <config_my_tim16+0x64>)
 800038e:	2101      	movs	r1, #1
 8000390:	430a      	orrs	r2, r1
 8000392:	60da      	str	r2, [r3, #12]
	NVIC_SetPriority 	( TIM16_IRQn , 0 ) ;		// Configure interrupt priority
 8000394:	2100      	movs	r1, #0
 8000396:	2015      	movs	r0, #21
 8000398:	f7ff ff6a 	bl	8000270 <__NVIC_SetPriority>
	NVIC_EnableIRQ 		( TIM16_IRQn ) ;			// Enable interrupt
 800039c:	2015      	movs	r0, #21
 800039e:	f7ff ff4d 	bl	800023c <__NVIC_EnableIRQ>
}
 80003a2:	46c0      	nop			; (mov r8, r8)
 80003a4:	46bd      	mov	sp, r7
 80003a6:	b002      	add	sp, #8
 80003a8:	bd80      	pop	{r7, pc}
 80003aa:	46c0      	nop			; (mov r8, r8)
 80003ac:	40021000 	.word	0x40021000
 80003b0:	40014400 	.word	0x40014400

080003b4 <start_my_tim16>:

void start_my_tim16 ( uint16_t my_tim16_arr )
{
 80003b4:	b580      	push	{r7, lr}
 80003b6:	b082      	sub	sp, #8
 80003b8:	af00      	add	r7, sp, #0
 80003ba:	0002      	movs	r2, r0
 80003bc:	1dbb      	adds	r3, r7, #6
 80003be:	801a      	strh	r2, [r3, #0]
	RCC->APBENR2	|= RCC_APBENR2_TIM16EN ; 	// Enable TIM16 clock
 80003c0:	4b0a      	ldr	r3, [pc, #40]	; (80003ec <start_my_tim16+0x38>)
 80003c2:	6c1a      	ldr	r2, [r3, #64]	; 0x40
 80003c4:	4b09      	ldr	r3, [pc, #36]	; (80003ec <start_my_tim16+0x38>)
 80003c6:	2180      	movs	r1, #128	; 0x80
 80003c8:	0289      	lsls	r1, r1, #10
 80003ca:	430a      	orrs	r2, r1
 80003cc:	641a      	str	r2, [r3, #64]	; 0x40
	TIM16->ARR 		=  my_tim16_arr - 1 ;	// default: 2 s = 2000 * 0,001s
 80003ce:	1dbb      	adds	r3, r7, #6
 80003d0:	881b      	ldrh	r3, [r3, #0]
 80003d2:	1e5a      	subs	r2, r3, #1
 80003d4:	4b06      	ldr	r3, [pc, #24]	; (80003f0 <start_my_tim16+0x3c>)
 80003d6:	62da      	str	r2, [r3, #44]	; 0x2c
	TIM16->CR1 		|= TIM_CR1_CEN ;		// Start counting TIM16
 80003d8:	4b05      	ldr	r3, [pc, #20]	; (80003f0 <start_my_tim16+0x3c>)
 80003da:	681a      	ldr	r2, [r3, #0]
 80003dc:	4b04      	ldr	r3, [pc, #16]	; (80003f0 <start_my_tim16+0x3c>)
 80003de:	2101      	movs	r1, #1
 80003e0:	430a      	orrs	r2, r1
 80003e2:	601a      	str	r2, [r3, #0]
}
 80003e4:	46c0      	nop			; (mov r8, r8)
 80003e6:	46bd      	mov	sp, r7
 80003e8:	b002      	add	sp, #8
 80003ea:	bd80      	pop	{r7, pc}
 80003ec:	40021000 	.word	0x40021000
 80003f0:	40014400 	.word	0x40014400

080003f4 <stop_my_tim16>:

void stop_my_tim16 ()
{
 80003f4:	b580      	push	{r7, lr}
 80003f6:	af00      	add	r7, sp, #0
	TIM16->SR 	&= ~TIM_SR_UIF ;		//Clean UIF Flag
 80003f8:	4b07      	ldr	r3, [pc, #28]	; (8000418 <stop_my_tim16+0x24>)
 80003fa:	691a      	ldr	r2, [r3, #16]
 80003fc:	4b06      	ldr	r3, [pc, #24]	; (8000418 <stop_my_tim16+0x24>)
 80003fe:	2101      	movs	r1, #1
 8000400:	438a      	bics	r2, r1
 8000402:	611a      	str	r2, [r3, #16]
	TIM16->CR1 	&= ~TIM_CR1_CEN ;		// Stop counting TIM16
 8000404:	4b04      	ldr	r3, [pc, #16]	; (8000418 <stop_my_tim16+0x24>)
 8000406:	681a      	ldr	r2, [r3, #0]
 8000408:	4b03      	ldr	r3, [pc, #12]	; (8000418 <stop_my_tim16+0x24>)
 800040a:	2101      	movs	r1, #1
 800040c:	438a      	bics	r2, r1
 800040e:	601a      	str	r2, [r3, #0]
}
 8000410:	46c0      	nop			; (mov r8, r8)
 8000412:	46bd      	mov	sp, r7
 8000414:	bd80      	pop	{r7, pc}
 8000416:	46c0      	nop			; (mov r8, r8)
 8000418:	40014400 	.word	0x40014400

0800041c <off_my_tim16>:

void off_my_tim16 () // Save energy and Disable TIM16 clock
{
 800041c:	b580      	push	{r7, lr}
 800041e:	af00      	add	r7, sp, #0
	stop_my_tim16 () ;
 8000420:	f7ff ffe8 	bl	80003f4 <stop_my_tim16>
	RCC->APBENR2 	&= ~RCC_APBENR2_TIM16EN ; 	// Save energy: disable TIM16 clock
 8000424:	4b04      	ldr	r3, [pc, #16]	; (8000438 <off_my_tim16+0x1c>)
 8000426:	6c1a      	ldr	r2, [r3, #64]	; 0x40
 8000428:	4b03      	ldr	r3, [pc, #12]	; (8000438 <off_my_tim16+0x1c>)
 800042a:	4904      	ldr	r1, [pc, #16]	; (800043c <off_my_tim16+0x20>)
 800042c:	400a      	ands	r2, r1
 800042e:	641a      	str	r2, [r3, #64]	; 0x40
}
 8000430:	46c0      	nop			; (mov r8, r8)
 8000432:	46bd      	mov	sp, r7
 8000434:	bd80      	pop	{r7, pc}
 8000436:	46c0      	nop			; (mov r8, r8)
 8000438:	40021000 	.word	0x40021000
 800043c:	fffdffff 	.word	0xfffdffff

08000440 <__libc_init_array>:
 8000440:	b570      	push	{r4, r5, r6, lr}
 8000442:	2600      	movs	r6, #0
 8000444:	4c0c      	ldr	r4, [pc, #48]	; (8000478 <__libc_init_array+0x38>)
 8000446:	4d0d      	ldr	r5, [pc, #52]	; (800047c <__libc_init_array+0x3c>)
 8000448:	1b64      	subs	r4, r4, r5
 800044a:	10a4      	asrs	r4, r4, #2
 800044c:	42a6      	cmp	r6, r4
 800044e:	d109      	bne.n	8000464 <__libc_init_array+0x24>
 8000450:	2600      	movs	r6, #0
 8000452:	f000 f819 	bl	8000488 <_init>
 8000456:	4c0a      	ldr	r4, [pc, #40]	; (8000480 <__libc_init_array+0x40>)
 8000458:	4d0a      	ldr	r5, [pc, #40]	; (8000484 <__libc_init_array+0x44>)
 800045a:	1b64      	subs	r4, r4, r5
 800045c:	10a4      	asrs	r4, r4, #2
 800045e:	42a6      	cmp	r6, r4
 8000460:	d105      	bne.n	800046e <__libc_init_array+0x2e>
 8000462:	bd70      	pop	{r4, r5, r6, pc}
 8000464:	00b3      	lsls	r3, r6, #2
 8000466:	58eb      	ldr	r3, [r5, r3]
 8000468:	4798      	blx	r3
 800046a:	3601      	adds	r6, #1
 800046c:	e7ee      	b.n	800044c <__libc_init_array+0xc>
 800046e:	00b3      	lsls	r3, r6, #2
 8000470:	58eb      	ldr	r3, [r5, r3]
 8000472:	4798      	blx	r3
 8000474:	3601      	adds	r6, #1
 8000476:	e7f2      	b.n	800045e <__libc_init_array+0x1e>
 8000478:	080004a0 	.word	0x080004a0
 800047c:	080004a0 	.word	0x080004a0
 8000480:	080004a4 	.word	0x080004a4
 8000484:	080004a0 	.word	0x080004a0

08000488 <_init>:
 8000488:	b5f8      	push	{r3, r4, r5, r6, r7, lr}
 800048a:	46c0      	nop			; (mov r8, r8)
 800048c:	bcf8      	pop	{r3, r4, r5, r6, r7}
 800048e:	bc08      	pop	{r3}
 8000490:	469e      	mov	lr, r3
 8000492:	4770      	bx	lr

08000494 <_fini>:
 8000494:	b5f8      	push	{r3, r4, r5, r6, r7, lr}
 8000496:	46c0      	nop			; (mov r8, r8)
 8000498:	bcf8      	pop	{r3, r4, r5, r6, r7}
 800049a:	bc08      	pop	{r3}
 800049c:	469e      	mov	lr, r3
 800049e:	4770      	bx	lr
